Certificate:
    Data:
        Version: 3 (0x2)
        Serial Number: 4097 (0x1001)
        Signature Algorithm: sha256WithRSAEncryption
        Issuer: CN=www.modelCA.com, O=Model CA LTD., C=US
        Validity
            Not Before: Jan 21 19:20:15 2022 GMT
            Not After : Jan 19 19:20:15 2032 GMT
        Subject: C=US, O=Bank32 Inc., CN=www.example.com
        Subject Public Key Info:
            Public Key Algorithm: rsaEncryption
                RSA Public-Key: (2048 bit)
                Modulus:
                    00:bd:ba:e9:15:8d:57:f1:21:99:06:04:11:1e:94:
                    7b:fe:7e:e4:e1:c2:7c:8f:f5:20:1a:10:62:69:ef:
                    66:52:0e:af:5a:d0:50:9b:50:da:54:44:04:96:2c:
                    ab:5a:e4:c8:86:c3:96:68:33:55:32:3b:2b:52:80:
                    05:56:30:c5:46:fa:a1:2b:4c:8d:d6:be:e5:47:6f:
                    2f:5d:96:28:9b:a1:05:b4:dc:e7:e1:d7:2f:e0:6f:
                    ad:99:08:93:1c:79:b4:3e:29:07:c9:0e:53:40:38:
                    e3:95:b2:28:d7:8d:c9:0d:cd:86:94:2b:2a:af:51:
                    e4:43:86:71:aa:f8:bc:7e:d0:aa:2c:4a:3c:5c:59:
                    2e:8b:43:66:93:7c:bb:2f:f7:c8:ef:8a:62:0f:29:
                    71:00:e3:13:91:84:2f:5c:f2:b3:d0:e2:be:5d:7e:
                    ce:3e:99:62:e4:d5:63:27:37:a4:cb:54:4d:5f:10:
                    a2:78:85:57:63:34:e6:ef:cb:b9:f1:a2:63:28:7d:
                    0d:61:b8:77:a7:e8:a5:15:27:e5:b6:01:fe:89:45:
                    5a:63:f3:f5:e8:f5:05:86:b4:b9:6c:60:16:6b:e2:
                    d5:c2:21:13:55:4d:80:bf:97:73:58:9d:7c:b3:cb:
                    0e:a1:36:5f:c2:ea:e5:4b:60:d1:75:9a:bd:02:44:
                    35:f9
                Exponent: 65537 (0x10001)
        X509v3 extensions:
            X509v3 Basic Constraints: 
                CA:FALSE
            Netscape Comment: 
                OpenSSL Generated Certificate
            X509v3 Subject Key Identifier: 
                E3:C2:F2:AE:AB:55:E8:AF:74:BB:2D:A8:58:8E:A6:2E:28:11:43:E5
            X509v3 Authority Key Identifier: 
                keyid:97:48:E0:71:2C:29:5A:59:8B:D5:07:57:8D:1B:FE:07:CC:94:5E:2C

            X509v3 Subject Alternative Name: 
                DNS:example.com, DNS:example.net, DNS:exampel.org
    Signature Algorithm: sha256WithRSAEncryption
         05:be:9f:a8:15:0b:10:67:db:1d:8b:83:ff:be:fd:7b:85:80:
         8c:01:d1:3a:9a:5b:e2:76:c7:1f:28:99:33:c9:65:4d:70:79:
         67:de:81:65:df:a7:4a:3c:aa:d2:65:32:f6:1a:f1:75:28:e6:
         19:fc:8f:c6:46:d8:f8:1e:cf:7b:be:94:45:ea:2e:79:04:3e:
         6f:a4:b6:02:65:2b:6d:25:fc:38:19:98:5e:b4:73:19:83:6b:
         67:c0:42:cf:55:cb:11:e8:88:7d:a3:4f:05:e9:13:e9:4a:68:
         2d:58:a8:f8:0e:07:a5:b0:c5:c9:1a:2e:9e:5d:76:81:71:e4:
         87:a7:3d:59:d8:77:11:0a:9a:d2:f9:aa:8a:91:30:b9:ab:60:
         67:d5:56:a4:20:0b:21:d7:2b:6f:72:a0:1b:f0:7b:f6:6f:18:
         a3:df:71:cf:7d:b3:96:c9:31:6d:fe:17:b5:f5:73:62:d2:6b:
         c0:cb:0f:d9:38:ae:ae:f9:66:58:57:83:50:0d:43:62:b6:f2:
         48:45:6b:29:e8:51:14:16:11:34:90:e6:b9:98:06:c1:3e:a8:
         37:20:16:e2:07:a8:2a:be:d3:41:c5:f2:4e:8d:92:49:18:f4:
         c1:81:fb:22:ba:13:16:94:38:59:46:d7:ec:c2:57:80:ce:14:
         b2:70:b0:ca:33:2d:09:90:79:bb:c0:d8:6b:94:8e:b7:a2:36:
         c2:9e:1e:57:7e:51:b6:89:e1:a9:d2:fd:8e:84:c1:ce:98:3c:
         b3:d0:ca:e6:82:03:76:ad:85:c5:11:b2:3d:0f:ee:fa:38:48:
         64:57:f7:aa:4f:a3:fc:19:39:e5:cc:e1:39:f4:2a:73:02:32:
         6d:a4:d5:7b:aa:2e:66:3a:ad:7e:43:66:44:19:9c:94:30:48:
         7b:dc:85:f5:0c:8b:d5:2d:6c:a2:7c:6d:b3:b9:e3:cd:84:94:
         95:09:92:4c:ad:d5:c8:64:05:d6:9e:b2:82:84:55:5d:2f:8f:
         2a:d5:3f:28:52:ec:e5:4f:bf:96:59:09:2c:62:47:63:63:d0:
         8b:b1:78:39:97:6f:c0:13:5d:fc:e2:55:2c:2e:c7:61:30:2e:
         50:c3:b8:4c:36:6e:5b:cc:6e:13:aa:a3:b8:ee:6e:b9:fe:d2:
         d1:86:09:ba:5b:bf:a9:94:af:7f:98:83:e7:83:42:69:30:dc:
         8b:90:fc:f4:03:6e:f4:62:5f:79:36:66:c5:34:99:a2:eb:c7:
         fa:3f:e4:24:d7:02:42:53:5b:e8:9e:cb:59:8b:51:1b:fa:af:
         e4:43:b7:a7:9f:54:7b:a8:95:f0:bc:1a:a4:b7:dc:10:aa:a0:
         b2:13:69:22:5e:32:27:3e
-----BEGIN CERTIFICATE-----
MIIEpzCCAo+gAwIBAgICEAEwDQYJKoZIhvcNAQELBQAwPzEYMBYGA1UEAwwPd3d3
Lm1vZGVsQ0EuY29tMRYwFAYDVQQKDA1Nb2RlbCBDQSBMVEQuMQswCQYDVQQGEwJV
UzAeFw0yMjAxMjExOTIwMTVaFw0zMjAxMTkxOTIwMTVaMD0xCzAJBgNVBAYTAlVT
MRQwEgYDVQQKDAtCYW5rMzIgSW5jLjEYMBYGA1UEAwwPd3d3LmV4YW1wbGUuY29t
MIIBIjANBgkqhkiG9w0BAQEFAAOCAQ8AMIIBCgKCAQEAvbrpFY1X8SGZBgQRHpR7
/n7k4cJ8j/UgGhBiae9mUg6vWtBQm1DaVEQEliyrWuTIhsOWaDNVMjsrUoAFVjDF
RvqhK0yN1r7lR28vXZYom6EFtNzn4dcv4G+tmQiTHHm0PikHyQ5TQDjjlbIo143J
Dc2GlCsqr1HkQ4Zxqvi8ftCqLEo8XFkui0Nmk3y7L/fI74piDylxAOMTkYQvXPKz
0OK+XX7OPpli5NVjJzeky1RNXxCieIVXYzTm78u58aJjKH0NYbh3p+ilFSfltgH+
iUVaY/P16PUFhrS5bGAWa+LVwiETVU2Av5dzWJ18s8sOoTZfwurlS2DRdZq9AkQ1
+QIDAQABo4GuMIGrMAkGA1UdEwQCMAAwLAYJYIZIAYb4QgENBB8WHU9wZW5TU0wg
R2VuZXJhdGVkIENlcnRpZmljYXRlMB0GA1UdDgQWBBTjwvKuq1Xor3S7LahYjqYu
KBFD5TAfBgNVHSMEGDAWgBSXSOBxLClaWYvVB1eNG/4HzJReLDAwBgNVHREEKTAn
ggtleGFtcGxlLmNvbYILZXhhbXBsZS5uZXSCC2V4YW1wZWwub3JnMA0GCSqGSIb3
DQEBCwUAA4ICAQAFvp+oFQsQZ9sdi4P/vv17hYCMAdE6mlvidscfKJkzyWVNcHln
3oFl36dKPKrSZTL2GvF1KOYZ/I/GRtj4Hs97vpRF6i55BD5vpLYCZSttJfw4GZhe
tHMZg2tnwELPVcsR6Ih9o08F6RPpSmgtWKj4DgelsMXJGi6eXXaBceSHpz1Z2HcR
CprS+aqKkTC5q2Bn1VakIAsh1ytvcqAb8Hv2bxij33HPfbOWyTFt/he19XNi0mvA
yw/ZOK6u+WZYV4NQDUNitvJIRWsp6FEUFhE0kOa5mAbBPqg3IBbiB6gqvtNBxfJO
jZJJGPTBgfsiuhMWlDhZRtfswleAzhSycLDKMy0JkHm7wNhrlI63ojbCnh5XflG2
ieGp0v2OhMHOmDyz0MrmggN2rYXFEbI9D+76OEhkV/eqT6P8GTnlzOE59CpzAjJt
pNV7qi5mOq1+Q2ZEGZyUMEh73IX1DIvVLWyifG2zuePNhJSVCZJMrdXIZAXWnrKC
hFVdL48q1T8oUuzlT7+WWQksYkdjY9CLsXg5l2/AE1384lUsLsdhMC5Qw7hMNm5b
zG4TqqO47m65/tLRhgm6W7+plK9/mIPng0JpMNyLkPz0A270Yl95NmbFNJmi68f6
P+Qk1wJCU1vonstZi1Eb+q/kQ7enn1R7qJXwvBqkt9wQqqCyE2kiXjInPg==
-----END CERTIFICATE-----
